target datalayout = "e-m:e-p270:32:32-p271:32:32-p272:64:64-i64:64-i128:128-f80:128-n8:16:32:64-S128"
target triple = "x86_64-pc-linux-gnu"

%struct.slurmdb_assoc_rec = type { ptr, ptr, ptr, ptr, ptr, ptr, ptr, i32, i32, i32, i32, i32, ptr, ptr, ptr, ptr, ptr, ptr, i32, i32, i16, ptr, ptr, i32, i32, i32, ptr, ptr, ptr, ptr, ptr, ptr, ptr, ptr, i32, i32, ptr, i32, ptr, i32, ptr, i32, i32, ptr, ptr, ptr }
%struct.slurmdb_hierarchical_rec_t = type { ptr, ptr, ptr, ptr }

@.str.2 = private unnamed_addr constant [15 x i8] c"slurmdb_defs.c\00", align 1
@__func__.slurmdb_get_acct_hierarchical_rec_list = private unnamed_addr constant [39 x i8] c"slurmdb_get_acct_hierarchical_rec_list\00", align 1
@.str.228 = private unnamed_addr constant [6 x i8] c"%u,%s\00", align 1

; Function Attrs: nounwind uwtable
define internal ptr @_create_hash_rec_id(ptr noundef %0, i1 noundef zeroext %1) #0 {
  %3 = alloca ptr, align 8
  %4 = alloca i8, align 1
  store ptr %0, ptr %3, align 8
  %5 = zext i1 %1 to i8
  store i8 %5, ptr %4, align 1
  %6 = load i8, ptr %4, align 1, !range !12, !noundef !13
  %7 = trunc i8 %6 to i1
  br i1 %7, label %8, label %12

8:                                                ; preds = %2
  %9 = load ptr, ptr %3, align 8
  %10 = getelementptr inbounds nuw %struct.slurmdb_assoc_rec, ptr %9, i32 0, i32 37
  %11 = load i32, ptr %10, align 8
  br label %16

12:                                               ; preds = %2
  %13 = load ptr, ptr %3, align 8
  %14 = getelementptr inbounds nuw %struct.slurmdb_assoc_rec, ptr %13, i32 0, i32 19
  %15 = load i32, ptr %14, align 4
  br label %16

16:                                               ; preds = %12, %8
  %17 = phi i32 [ %11, %8 ], [ %15, %12 ]
  %18 = load ptr, ptr %3, align 8
  %19 = getelementptr inbounds nuw %struct.slurmdb_assoc_rec, ptr %18, i32 0, i32 5
  %20 = load ptr, ptr %19, align 8
  %21 = call ptr (ptr, ...) @xstrdup_printf(ptr noundef @.str.228, i32 noundef %17, ptr noundef %20)
  ret ptr %21
}

; Function Attrs: nounwind uwtable
define dso_local void @slurmdb_sort_hierarchical_assoc_list(ptr noundef %0) #0 {
  %2 = alloca ptr, align 8
  store ptr %0, ptr %2, align 8
  %3 = load ptr, ptr %2, align 8
  call void @list_sort(ptr noundef %3, ptr noundef @_sort_assoc_by_lineage_asc)
  ret void
}

; Function Attrs: nounwind uwtable
define dso_local ptr @slurmdb_get_acct_hierarchical_rec_list(ptr noundef %0) #0 {
  %2 = alloca ptr, align 8
  %3 = alloca ptr, align 8
  %4 = alloca ptr, align 8
  %5 = alloca ptr, align 8
  %6 = alloca ptr, align 8
  %7 = alloca ptr, align 8
  %8 = alloca ptr, align 8
  %9 = alloca ptr, align 8
  %10 = alloca ptr, align 8
  %11 = alloca ptr, align 8
  store ptr %0, ptr %2, align 8
  call void @llvm.lifetime.start.p0(i64 8, ptr %3) #10
  store ptr null, ptr %3, align 8
  call void @llvm.lifetime.start.p0(i64 8, ptr %4) #10
  store ptr null, ptr %4, align 8
  call void @llvm.lifetime.start.p0(i64 8, ptr %5) #10
  store ptr null, ptr %5, align 8
  call void @llvm.lifetime.start.p0(i64 8, ptr %6) #10
  store ptr null, ptr %6, align 8
  call void @llvm.lifetime.start.p0(i64 8, ptr %7) #10
  store ptr null, ptr %7, align 8
  call void @llvm.lifetime.start.p0(i64 8, ptr %8) #10
  %12 = call ptr @xhash_init(ptr noundef @_arch_hash_rec_id, ptr noundef null)
  store ptr %12, ptr %8, align 8
  call void @llvm.lifetime.start.p0(i64 8, ptr %9) #10
  %13 = call ptr @list_create(ptr noundef @slurmdb_destroy_hierarchical_rec)
  store ptr %13, ptr %9, align 8
  call void @llvm.lifetime.start.p0(i64 8, ptr %10) #10
  %14 = load ptr, ptr %2, align 8
  call void @slurmdb_sort_hierarchical_assoc_list(ptr noundef %14)
  %15 = load ptr, ptr %2, align 8
  %16 = call ptr @list_iterator_create(ptr noundef %15)
  store ptr %16, ptr %10, align 8
  br label %17

17:                                               ; preds = %156, %33, %1
  %18 = load ptr, ptr %10, align 8
  %19 = call ptr @list_next(ptr noundef %18)
  store ptr %19, ptr %7, align 8
  %20 = icmp ne ptr %19, null
  br i1 %20, label %21, label %157

21:                                               ; preds = %17
  %22 = call ptr @slurm_xcalloc(i64 noundef 1, i64 noundef 32, i1 noundef zeroext true, i1 noundef zeroext false, ptr noundef @.str.2, i32 noundef 2401, ptr noundef @__func__.slurmdb_get_acct_hierarchical_rec_list)
  store ptr %22, ptr %6, align 8
  %23 = call ptr @list_create(ptr noundef @slurmdb_destroy_hierarchical_rec)
  %24 = load ptr, ptr %6, align 8
  %25 = getelementptr inbounds nuw %struct.slurmdb_hierarchical_rec_t, ptr %24, i32 0, i32 3
  store ptr %23, ptr %25, align 8
  %26 = load ptr, ptr %7, align 8
  %27 = load ptr, ptr %6, align 8
  %28 = getelementptr inbounds nuw %struct.slurmdb_hierarchical_rec_t, ptr %27, i32 0, i32 0
  store ptr %26, ptr %28, align 8
  %29 = load ptr, ptr %7, align 8
  %30 = getelementptr inbounds nuw %struct.slurmdb_assoc_rec, ptr %29, i32 0, i32 37
  %31 = load i32, ptr %30, align 8
  %32 = icmp ne i32 %31, 0
  br i1 %32, label %44, label %33

33:                                               ; preds = %21
  %34 = load ptr, ptr %7, align 8
  %35 = getelementptr inbounds nuw %struct.slurmdb_assoc_rec, ptr %34, i32 0, i32 5
  %36 = load ptr, ptr %35, align 8
  %37 = load ptr, ptr %6, align 8
  %38 = getelementptr inbounds nuw %struct.slurmdb_hierarchical_rec_t, ptr %37, i32 0, i32 2
  store ptr %36, ptr %38, align 8
  %39 = load ptr, ptr %9, align 8
  %40 = load ptr, ptr %6, align 8
  call void @list_append(ptr noundef %39, ptr noundef %40)
  %41 = load ptr, ptr %8, align 8
  %42 = load ptr, ptr %6, align 8
  %43 = call ptr @xhash_add(ptr noundef %41, ptr noundef %42)
  br label %17, !llvm.loop !28

44:                                               ; preds = %21
  %45 = load ptr, ptr %7, align 8
  %46 = getelementptr inbounds nuw %struct.slurmdb_assoc_rec, ptr %45, i32 0, i32 44
  %47 = load ptr, ptr %46, align 8
  %48 = icmp ne ptr %47, null
  br i1 %48, label %49, label %55

49:                                               ; preds = %44
  %50 = load ptr, ptr %7, align 8
  %51 = getelementptr inbounds nuw %struct.slurmdb_assoc_rec, ptr %50, i32 0, i32 44
  %52 = load ptr, ptr %51, align 8
  %53 = load ptr, ptr %6, align 8
  %54 = getelementptr inbounds nuw %struct.slurmdb_hierarchical_rec_t, ptr %53, i32 0, i32 2
  store ptr %52, ptr %54, align 8
  br label %61

55:                                               ; preds = %44
  %56 = load ptr, ptr %7, align 8
  %57 = getelementptr inbounds nuw %struct.slurmdb_assoc_rec, ptr %56, i32 0, i32 1
  %58 = load ptr, ptr %57, align 8
  %59 = load ptr, ptr %6, align 8
  %60 = getelementptr inbounds nuw %struct.slurmdb_hierarchical_rec_t, ptr %59, i32 0, i32 2
  store ptr %58, ptr %60, align 8
  br label %61

61:                                               ; preds = %55, %49
  %62 = load ptr, ptr %5, align 8
  %63 = icmp ne ptr %62, null
  br i1 %63, label %64, label %87

64:                                               ; preds = %61
  %65 = load ptr, ptr %7, align 8
  %66 = getelementptr inbounds nuw %struct.slurmdb_assoc_rec, ptr %65, i32 0, i32 37
  %67 = load i32, ptr %66, align 8
  %68 = load ptr, ptr %5, align 8
  %69 = getelementptr inbounds nuw %struct.slurmdb_hierarchical_rec_t, ptr %68, i32 0, i32 0
  %70 = load ptr, ptr %69, align 8
  %71 = getelementptr inbounds nuw %struct.slurmdb_assoc_rec, ptr %70, i32 0, i32 19
  %72 = load i32, ptr %71, align 4
  %73 = icmp eq i32 %67, %72
  br i1 %73, label %74, label %87

74:                                               ; preds = %64
  %75 = load ptr, ptr %7, align 8
  %76 = getelementptr inbounds nuw %struct.slurmdb_assoc_rec, ptr %75, i32 0, i32 5
  %77 = load ptr, ptr %76, align 8
  %78 = load ptr, ptr %5, align 8
  %79 = getelementptr inbounds nuw %struct.slurmdb_hierarchical_rec_t, ptr %78, i32 0, i32 0
  %80 = load ptr, ptr %79, align 8
  %81 = getelementptr inbounds nuw %struct.slurmdb_assoc_rec, ptr %80, i32 0, i32 5
  %82 = load ptr, ptr %81, align 8
  %83 = call i32 @xstrcmp(ptr noundef %77, ptr noundef %82)
  %84 = icmp ne i32 %83, 0
  br i1 %84, label %87, label %85

85:                                               ; preds = %74
  %86 = load ptr, ptr %5, align 8
  store ptr %86, ptr %3, align 8
  br label %135

87:                                               ; preds = %74, %64, %61
  %88 = load ptr, ptr %4, align 8
  %89 = icmp ne ptr %88, null
  br i1 %89, label %90, label %113

90:                                               ; preds = %87
  %91 = load ptr, ptr %7, align 8
  %92 = getelementptr inbounds nuw %struct.slurmdb_assoc_rec, ptr %91, i32 0, i32 37
  %93 = load i32, ptr %92, align 8
  %94 = load ptr, ptr %4, align 8
  %95 = getelementptr inbounds nuw %struct.slurmdb_hierarchical_rec_t, ptr %94, i32 0, i32 0
  %96 = load ptr, ptr %95, align 8
  %97 = getelementptr inbounds nuw %struct.slurmdb_assoc_rec, ptr %96, i32 0, i32 19
  %98 = load i32, ptr %97, align 4
  %99 = icmp eq i32 %93, %98
  br i1 %99, label %100, label %113

100:                                              ; preds = %90
  %101 = load ptr, ptr %7, align 8
  %102 = getelementptr inbounds nuw %struct.slurmdb_assoc_rec, ptr %101, i32 0, i32 5
  %103 = load ptr, ptr %102, align 8
  %104 = load ptr, ptr %4, align 8
  %105 = getelementptr inbounds nuw %struct.slurmdb_hierarchical_rec_t, ptr %104, i32 0, i32 0
  %106 = load ptr, ptr %105, align 8
  %107 = getelementptr inbounds nuw %struct.slurmdb_assoc_rec, ptr %106, i32 0, i32 5
  %108 = load ptr, ptr %107, align 8
  %109 = call i32 @xstrcmp(ptr noundef %103, ptr noundef %108)
  %110 = icmp ne i32 %109, 0
  br i1 %110, label %113, label %111

111:                                              ; preds = %100
  %112 = load ptr, ptr %4, align 8
  store ptr %112, ptr %3, align 8
  br label %134

113:                                              ; preds = %100, %90, %87
  call void @llvm.lifetime.start.p0(i64 8, ptr %11) #10
  %114 = load ptr, ptr %7, align 8
  %115 = call ptr @_create_hash_rec_id(ptr noundef %114, i1 noundef zeroext true)
  store ptr %115, ptr %11, align 8
  %116 = load ptr, ptr %8, align 8
  %117 = load ptr, ptr %11, align 8
  %118 = load ptr, ptr %11, align 8
  %119 = call i64 @strlen(ptr noundef %118) #11
  %120 = trunc i64 %119 to i32
  %121 = call ptr @xhash_get(ptr noundef %116, ptr noundef %117, i32 noundef %120)
  store ptr %121, ptr %3, align 8
  call void @slurm_xfree(ptr noundef %11)
  %122 = load ptr, ptr %3, align 8
  %123 = icmp ne ptr %122, null
  br i1 %123, label %124, label %133

124:                                              ; preds = %113
  %125 = load ptr, ptr %3, align 8
  store ptr %125, ptr %5, align 8
  %126 = load ptr, ptr %7, align 8
  %127 = getelementptr inbounds nuw %struct.slurmdb_assoc_rec, ptr %126, i32 0, i32 44
  %128 = load ptr, ptr %127, align 8
  %129 = icmp ne ptr %128, null
  br i1 %129, label %132, label %130

130:                                              ; preds = %124
  %131 = load ptr, ptr %3, align 8
  store ptr %131, ptr %4, align 8
  br label %132

132:                                              ; preds = %130, %124
  br label %133

133:                                              ; preds = %132, %113
  call void @llvm.lifetime.end.p0(i64 8, ptr %11) #10
  br label %134

134:                                              ; preds = %133, %111
  br label %135

135:                                              ; preds = %134, %85
  %136 = load ptr, ptr %3, align 8
  %137 = icmp ne ptr %136, null
  br i1 %137, label %142, label %138

138:                                              ; preds = %135
  %139 = load ptr, ptr %9, align 8
  %140 = load ptr, ptr %6, align 8
  call void @list_append(ptr noundef %139, ptr noundef %140)
  %141 = load ptr, ptr %6, align 8
  store ptr %141, ptr %4, align 8
  store ptr %141, ptr %5, align 8
  br label %147

142:                                              ; preds = %135
  %143 = load ptr, ptr %3, align 8
  %144 = getelementptr inbounds nuw %struct.slurmdb_hierarchical_rec_t, ptr %143, i32 0, i32 3
  %145 = load ptr, ptr %144, align 8
  %146 = load ptr, ptr %6, align 8
  call void @list_append(ptr noundef %145, ptr noundef %146)
  br label %147

147:                                              ; preds = %142, %138
  %148 = load ptr, ptr %7, align 8
  %149 = getelementptr inbounds nuw %struct.slurmdb_assoc_rec, ptr %148, i32 0, i32 44
  %150 = load ptr, ptr %149, align 8
  %151 = icmp ne ptr %150, null
  br i1 %151, label %156, label %152

152:                                              ; preds = %147
  %153 = load ptr, ptr %8, align 8
  %154 = load ptr, ptr %6, align 8
  %155 = call ptr @xhash_add(ptr noundef %153, ptr noundef %154)
  br label %156

156:                                              ; preds = %152, %147
  br label %17, !llvm.loop !28

157:                                              ; preds = %17
  %158 = load ptr, ptr %10, align 8
  call void @list_iterator_destroy(ptr noundef %158)
  call void @xhash_free_ptr(ptr noundef %8)
  %159 = load ptr, ptr %9, align 8
  %160 = call i32 @_sort_slurmdb_hierarchical_rec_list(ptr noundef %159)
  %161 = load ptr, ptr %9, align 8
  call void @llvm.lifetime.end.p0(i64 8, ptr %10) #10
  call void @llvm.lifetime.end.p0(i64 8, ptr %9) #10
  call void @llvm.lifetime.end.p0(i64 8, ptr %8) #10
  call void @llvm.lifetime.end.p0(i64 8, ptr %7) #10
  call void @llvm.lifetime.end.p0(i64 8, ptr %6) #10
  call void @llvm.lifetime.end.p0(i64 8, ptr %5) #10
  call void @llvm.lifetime.end.p0(i64 8, ptr %4) #10
  call void @llvm.lifetime.end.p0(i64 8, ptr %3) #10
  ret ptr %161
}