; Function Attrs: nounwind uwtable
define dso_local ptr @slurmdb_get_acct_hierarchical_rec_list(ptr noundef %0) local_unnamed_addr #0 {
  %2 = alloca ptr, align 8
  %3 = alloca ptr, align 8
  call void @llvm.lifetime.start.p0(i64 8, ptr nonnull %2) #19
  %4 = tail call ptr @xhash_init(ptr noundef nonnull @_arch_hash_rec_id, ptr noundef null) #19
  store ptr %4, ptr %2, align 8
  %5 = tail call ptr @list_create(ptr noundef nonnull @slurmdb_destroy_hierarchical_rec) #19
  tail call void @list_sort(ptr noundef %0, ptr noundef nonnull @_sort_assoc_by_lineage_asc) #19
  %6 = tail call ptr @list_iterator_create(ptr noundef %0) #19
  %7 = tail call ptr @list_next(ptr noundef %6) #19
  %.not7778 = icmp eq ptr %7, null
  br i1 %.not7778, label %.outer._crit_edge, label %.lr.ph

.lr.ph:                                           ; preds = %1, %.outer
  %8 = phi ptr [ %73, %.outer ], [ %7, %1 ]
  %.045.ph80 = phi ptr [ %.3, %.outer ], [ null, %1 ]
  %.046.ph79 = phi ptr [ %.349, %.outer ], [ null, %1 ]
  br label %9

9:                                                ; preds = %.lr.ph, %16
  %10 = phi ptr [ %8, %.lr.ph ], [ %21, %16 ]
  %11 = call ptr @slurm_xcalloc(i64 noundef 1, i64 noundef 32, i1 noundef zeroext true, i1 noundef zeroext false, ptr noundef nonnull @.str.2, i32 noundef 2401, ptr noundef nonnull @__func__.slurmdb_get_acct_hierarchical_rec_list) #19
  %12 = call ptr @list_create(ptr noundef nonnull @slurmdb_destroy_hierarchical_rec) #19
  %13 = getelementptr inbounds nuw i8, ptr %11, i64 24
  store ptr %12, ptr %13, align 8
  store ptr %10, ptr %11, align 8
  %14 = getelementptr inbounds nuw i8, ptr %10, i64 256
  %15 = load i32, ptr %14, align 8
  %.not53 = icmp eq i32 %15, 0
  br i1 %.not53, label %16, label %22

16:                                               ; preds = %9
  %17 = getelementptr inbounds nuw i8, ptr %10, i64 40
  %18 = load ptr, ptr %17, align 8
  %19 = getelementptr inbounds nuw i8, ptr %11, i64 16
  store ptr %18, ptr %19, align 8
  call void @list_append(ptr noundef %5, ptr noundef nonnull %11) #19
  %20 = call ptr @xhash_add(ptr noundef %4, ptr noundef nonnull %11) #19
  %21 = call ptr @list_next(ptr noundef %6) #19
  %.not = icmp eq ptr %21, null
  br i1 %.not, label %.outer._crit_edge, label %9, !llvm.loop !26

22:                                               ; preds = %9
  %23 = getelementptr inbounds nuw i8, ptr %10, i64 256
  %24 = getelementptr inbounds nuw i8, ptr %10, i64 304
  %25 = load ptr, ptr %24, align 8
  %.not54 = icmp eq ptr %25, null
  br i1 %.not54, label %26, label %29

26:                                               ; preds = %22
  %27 = getelementptr inbounds nuw i8, ptr %10, i64 8
  %28 = load ptr, ptr %27, align 8
  br label %29

29:                                               ; preds = %22, %26
  %.sink = phi ptr [ %28, %26 ], [ %25, %22 ]
  %30 = getelementptr inbounds nuw i8, ptr %11, i64 16
  store ptr %.sink, ptr %30, align 8
  %.not55 = icmp eq ptr %.046.ph79, null
  br i1 %.not55, label %43, label %31

31:                                               ; preds = %29
  %32 = load i32, ptr %23, align 8
  %33 = load ptr, ptr %.046.ph79, align 8
  %34 = getelementptr inbounds nuw i8, ptr %33, i64 132
  %35 = load i32, ptr %34, align 4
  %36 = icmp eq i32 %32, %35
  br i1 %36, label %37, label %43

37:                                               ; preds = %31
  %38 = getelementptr inbounds nuw i8, ptr %10, i64 40
  %39 = load ptr, ptr %38, align 8
  %40 = getelementptr inbounds nuw i8, ptr %33, i64 40
  %41 = load ptr, ptr %40, align 8
  %42 = call i32 @xstrcmp(ptr noundef %39, ptr noundef %41) #19
  %.not56 = icmp eq i32 %42, 0
  br i1 %.not56, label %.thread, label %43

43:                                               ; preds = %37, %31, %29
  %.not57 = icmp eq ptr %.045.ph80, null
  br i1 %.not57, label %56, label %44

44:                                               ; preds = %43
  %45 = load i32, ptr %23, align 8
  %46 = load ptr, ptr %.045.ph80, align 8
  %47 = getelementptr inbounds nuw i8, ptr %46, i64 132
  %48 = load i32, ptr %47, align 4
  %49 = icmp eq i32 %45, %48
  br i1 %49, label %50, label %56

50:                                               ; preds = %44
  %51 = getelementptr inbounds nuw i8, ptr %10, i64 40
  %52 = load ptr, ptr %51, align 8
  %53 = getelementptr inbounds nuw i8, ptr %46, i64 40
  %54 = load ptr, ptr %53, align 8
  %55 = call i32 @xstrcmp(ptr noundef %52, ptr noundef %54) #19
  %.not58 = icmp eq i32 %55, 0
  br i1 %.not58, label %.thread, label %56

56:                                               ; preds = %50, %44, %43
  call void @llvm.lifetime.start.p0(i64 8, ptr nonnull %3) #19
  %57 = load i32, ptr %23, align 4
  %58 = getelementptr inbounds nuw i8, ptr %10, i64 40
  %59 = load ptr, ptr %58, align 8
  %60 = call ptr (ptr, ...) @xstrdup_printf(ptr noundef nonnull @.str.228, i32 noundef %57, ptr noundef %59) #19
  store ptr %60, ptr %3, align 8
  %61 = call i64 @strlen(ptr noundef nonnull dereferenceable(1) %60) #20
  %62 = trunc i64 %61 to i32
  %63 = call ptr @xhash_get(ptr noundef %4, ptr noundef nonnull %60, i32 noundef %62) #19
  call void @slurm_xfree(ptr noundef nonnull %3) #19
  %.not59 = icmp eq ptr %63, null
  br i1 %.not59, label %66, label %64

64:                                               ; preds = %56
  %65 = load ptr, ptr %24, align 8
  %.not60 = icmp eq ptr %65, null
  %spec.select = select i1 %.not60, ptr %63, ptr %.045.ph80
  call void @llvm.lifetime.end.p0(i64 8, ptr nonnull %3) #19
  br label %.thread

66:                                               ; preds = %56
  call void @llvm.lifetime.end.p0(i64 8, ptr nonnull %3) #19
  br label %69

.thread:                                          ; preds = %50, %37, %64
  %.069 = phi ptr [ %63, %64 ], [ %.045.ph80, %50 ], [ %.046.ph79, %37 ]
  %.168 = phi ptr [ %spec.select, %64 ], [ %.045.ph80, %50 ], [ %.045.ph80, %37 ]
  %.14767 = phi ptr [ %63, %64 ], [ %.046.ph79, %50 ], [ %.046.ph79, %37 ]
  %67 = getelementptr inbounds nuw i8, ptr %.069, i64 24
  %68 = load ptr, ptr %67, align 8
  br label %69

69:                                               ; preds = %.thread, %66
  %.sink92 = phi ptr [ %68, %.thread ], [ %5, %66 ]
  %.349 = phi ptr [ %.14767, %.thread ], [ %11, %66 ]
  %.3 = phi ptr [ %.168, %.thread ], [ %11, %66 ]
  call void @list_append(ptr noundef %.sink92, ptr noundef nonnull %11) #19
  %70 = load ptr, ptr %24, align 8
  %.not62 = icmp eq ptr %70, null
  br i1 %.not62, label %71, label %.outer

71:                                               ; preds = %69
  %72 = call ptr @xhash_add(ptr noundef %4, ptr noundef nonnull %11) #19
  br label %.outer

.outer:                                           ; preds = %71, %69
  %73 = call ptr @list_next(ptr noundef %6) #19
  %.not77 = icmp eq ptr %73, null
  br i1 %.not77, label %.outer._crit_edge, label %.lr.ph, !llvm.loop !26

.outer._crit_edge:                                ; preds = %.outer, %16, %1
  call void @list_iterator_destroy(ptr noundef %6) #19
  call void @xhash_free_ptr(ptr noundef nonnull %2) #19
  call fastcc void @_sort_slurmdb_hierarchical_rec_list(ptr noundef %5)
  call void @llvm.lifetime.end.p0(i64 8, ptr nonnull %2) #19
  ret ptr %5
}